; ModuleID = '37/1711.c'
source_filename = "37/1711.c"
target datalayout = "e-m:e-p270:32:32-p271:32:32-p272:64:64-i64:64-f80:128-n8:16:32:64-S128"
target triple = "x86_64-pc-linux-gnu"

@.str = private unnamed_addr constant [3 x i8] c"%d\00", align 1
@.str.1 = private unnamed_addr constant [4 x i8] c"%c\0A\00", align 1
@.str.2 = private unnamed_addr constant [4 x i8] c"no\0A\00", align 1

; Function Attrs: noinline nounwind uwtable
define dso_local i32 @main() #0 {
  %1 = alloca i32, align 4
  %2 = alloca i32, align 4
  %3 = alloca i32, align 4
  %4 = alloca i32, align 4
  %5 = alloca i32, align 4
  %6 = alloca i32, align 4
  %7 = alloca i8, align 1
  %8 = alloca i32, align 4
  %9 = alloca [100001 x i8], align 16
  %10 = alloca [100001 x i32], align 16
  store i32 0, i32* %1, align 4
  %11 = call i32 (i8*, ...) @__isoc99_scanf(i8* getelementptr inbounds ([3 x i8], [3 x i8]* @.str, i64 0, i64 0), i32* %5)
  store i32 0, i32* %2, align 4
  br label %12

12:                                               ; preds = %131, %0
  %13 = load i32, i32* %2, align 4
  %14 = load i32, i32* %5, align 4
  %15 = icmp sle i32 %13, %14
  br i1 %15, label %16, label %134

16:                                               ; preds = %12
  %17 = bitcast [100001 x i32]* %10 to i8*
  call void @llvm.memset.p0i8.i64(i8* align 16 %17, i8 0, i64 400004, i1 false)
  %18 = getelementptr inbounds [100001 x i8], [100001 x i8]* %9, i64 0, i64 0
  %19 = call i32 (i8*, ...) bitcast (i32 (...)* @gets to i32 (i8*, ...)*)(i8* %18)
  %20 = getelementptr inbounds [100001 x i8], [100001 x i8]* %9, i64 0, i64 0
  %21 = call i64 @strlen(i8* %20) #4
  %22 = trunc i64 %21 to i32
  store i32 %22, i32* %6, align 4
  store i32 0, i32* %3, align 4
  br label %23

23:                                               ; preds = %58, %16
  %24 = load i32, i32* %3, align 4
  %25 = load i32, i32* %6, align 4
  %26 = icmp slt i32 %24, %25
  br i1 %26, label %27, label %61

27:                                               ; preds = %23
  store i32 0, i32* %4, align 4
  br label %28

28:                                               ; preds = %54, %27
  %29 = load i32, i32* %4, align 4
  %30 = load i32, i32* %6, align 4
  %31 = icmp slt i32 %29, %30
  br i1 %31, label %32, label %57

32:                                               ; preds = %28
  %33 = load i32, i32* %3, align 4
  %34 = sext i32 %33 to i64
  %35 = getelementptr inbounds [100001 x i8], [100001 x i8]* %9, i64 0, i64 %34
  %36 = load i8, i8* %35, align 1
  %37 = sext i8 %36 to i32
  %38 = load i32, i32* %4, align 4
  %39 = sext i32 %38 to i64
  %40 = getelementptr inbounds [100001 x i8], [100001 x i8]* %9, i64 0, i64 %39
  %41 = load i8, i8* %40, align 1
  %42 = sext i8 %41 to i32
  %43 = icmp eq i32 %37, %42
  br i1 %43, label %44, label %53

44:                                               ; preds = %32
  %45 = load i32, i32* %3, align 4
  %46 = sext i32 %45 to i64
  %47 = getelementptr inbounds [100001 x i32], [100001 x i32]* %10, i64 0, i64 %46
  %48 = load i32, i32* %47, align 4
  %49 = add nsw i32 %48, 1
  %50 = load i32, i32* %3, align 4
  %51 = sext i32 %50 to i64
  %52 = getelementptr inbounds [100001 x i32], [100001 x i32]* %10, i64 0, i64 %51
  store i32 %49, i32* %52, align 4
  br label %53

53:                                               ; preds = %44, %32
  br label %54

54:                                               ; preds = %53
  %55 = load i32, i32* %4, align 4
  %56 = add nsw i32 %55, 1
  store i32 %56, i32* %4, align 4
  br label %28

57:                                               ; preds = %28
  br label %58

58:                                               ; preds = %57
  %59 = load i32, i32* %3, align 4
  %60 = add nsw i32 %59, 1
  store i32 %60, i32* %3, align 4
  br label %23

61:                                               ; preds = %23
  store i32 0, i32* %3, align 4
  br label %62

62:                                               ; preds = %80, %61
  %63 = load i32, i32* %3, align 4
  %64 = load i32, i32* %6, align 4
  %65 = icmp slt i32 %63, %64
  br i1 %65, label %66, label %83

66:                                               ; preds = %62
  %67 = load i32, i32* %3, align 4
  %68 = sext i32 %67 to i64
  %69 = getelementptr inbounds [100001 x i32], [100001 x i32]* %10, i64 0, i64 %68
  %70 = load i32, i32* %69, align 4
  %71 = icmp eq i32 %70, 1
  br i1 %71, label %72, label %79

72:                                               ; preds = %66
  %73 = load i32, i32* %3, align 4
  %74 = sext i32 %73 to i64
  %75 = getelementptr inbounds [100001 x i8], [100001 x i8]* %9, i64 0, i64 %74
  %76 = load i8, i8* %75, align 1
  %77 = sext i8 %76 to i32
  %78 = call i32 (i8*, ...) @printf(i8* getelementptr inbounds ([4 x i8], [4 x i8]* @.str.1, i64 0, i64 0), i32 %77)
  br label %83

79:                                               ; preds = %66
  br label %80

80:                                               ; preds = %79
  %81 = load i32, i32* %3, align 4
  %82 = add nsw i32 %81, 1
  store i32 %82, i32* %3, align 4
  br label %62

83:                                               ; preds = %72, %62
  store i32 0, i32* %3, align 4
  br label %84

84:                                               ; preds = %118, %83
  %85 = load i32, i32* %3, align 4
  %86 = load i32, i32* %6, align 4
  %87 = icmp slt i32 %85, %86
  br i1 %87, label %88, label %121

88:                                               ; preds = %84
  %89 = load i32, i32* %3, align 4
  %90 = sext i32 %89 to i64
  %91 = getelementptr inbounds [100001 x i32], [100001 x i32]* %10, i64 0, i64 %90
  %92 = load i32, i32* %91, align 4
  %93 = load i32, i32* %3, align 4
  %94 = add nsw i32 %93, 1
  %95 = sext i32 %94 to i64
  %96 = getelementptr inbounds [100001 x i32], [100001 x i32]* %10, i64 0, i64 %95
  %97 = load i32, i32* %96, align 4
  %98 = icmp sle i32 %92, %97
  br i1 %98, label %99, label %117

99:                                               ; preds = %88
  %100 = load i32, i32* %3, align 4
  %101 = sext i32 %100 to i64
  %102 = getelementptr inbounds [100001 x i32], [100001 x i32]* %10, i64 0, i64 %101
  %103 = load i32, i32* %102, align 4
  store i32 %103, i32* %8, align 4
  %104 = load i32, i32* %3, align 4
  %105 = add nsw i32 %104, 1
  %106 = sext i32 %105 to i64
  %107 = getelementptr inbounds [100001 x i32], [100001 x i32]* %10, i64 0, i64 %106
  %108 = load i32, i32* %107, align 4
  %109 = load i32, i32* %3, align 4
  %110 = sext i32 %109 to i64
  %111 = getelementptr inbounds [100001 x i32], [100001 x i32]* %10, i64 0, i64 %110
  store i32 %108, i32* %111, align 4
  %112 = load i32, i32* %8, align 4
  %113 = load i32, i32* %3, align 4
  %114 = add nsw i32 %113, 1
  %115 = sext i32 %114 to i64
  %116 = getelementptr inbounds [100001 x i32], [100001 x i32]* %10, i64 0, i64 %115
  store i32 %112, i32* %116, align 4
  br label %117

117:                                              ; preds = %99, %88
  br label %118

118:                                              ; preds = %117
  %119 = load i32, i32* %3, align 4
  %120 = add nsw i32 %119, 1
  store i32 %120, i32* %3, align 4
  br label %84

121:                                              ; preds = %84
  %122 = load i32, i32* %6, align 4
  %123 = sub nsw i32 %122, 1
  %124 = sext i32 %123 to i64
  %125 = getelementptr inbounds [100001 x i32], [100001 x i32]* %10, i64 0, i64 %124
  %126 = load i32, i32* %125, align 4
  %127 = icmp sgt i32 %126, 1
  br i1 %127, label %128, label %130

128:                                              ; preds = %121
  %129 = call i32 (i8*, ...) @printf(i8* getelementptr inbounds ([4 x i8], [4 x i8]* @.str.2, i64 0, i64 0))
  br label %130

130:                                              ; preds = %128, %121
  br label %131

131:                                              ; preds = %130
  %132 = load i32, i32* %2, align 4
  %133 = add nsw i32 %132, 1
  store i32 %133, i32* %2, align 4
  br label %12

134:                                              ; preds = %12
  %135 = load i32, i32* %1, align 4
  ret i32 %135
}

declare dso_local i32 @__isoc99_scanf(i8*, ...) #1

; Function Attrs: argmemonly nounwind willreturn
declare void @llvm.memset.p0i8.i64(i8* nocapture writeonly, i8, i64, i1 immarg) #2

declare dso_local i32 @gets(...) #1

; Function Attrs: nounwind readonly
declare dso_local i64 @strlen(i8*) #3

declare dso_local i32 @printf(i8*, ...) #1


!llvm.module.flags = !{!0}
!llvm.ident = !{!1}

!0 = !{i32 1, !"wchar_size", i32 4}
!1 = !{!"clang version 10.0.0-4ubuntu1 "}
